target datalayout = "e-m:e-p270:32:32-p271:32:32-p272:64:64-i64:64-i128:128-f80:128-n8:16:32:64-S128"
target triple = "x86_64-pc-linux-gnu"

%struct.ec_group_st = type { ptr, ptr, ptr, ptr, i32, i32, i32, i32, ptr, i64, ptr, [6 x i32], ptr, ptr, i32, ptr, ptr, ptr, ptr, i32, %union.anon, ptr, ptr }
%union.anon = type { ptr }

@.str = private unnamed_addr constant [31 x i8] c"../openssl/crypto/ec/ecp_oct.c\00", align 1
@__func__.ossl_ec_GFp_simple_oct2point = private unnamed_addr constant [29 x i8] c"ossl_ec_GFp_simple_oct2point\00", align 1

; Function Attrs: nounwind uwtable
define i32 @ossl_ec_GFp_simple_oct2point(ptr noundef %0, ptr noundef %1, ptr noundef %2, i64 noundef %3, ptr noundef %4) #0 {
  %6 = alloca i32, align 4
  %7 = alloca ptr, align 8
  %8 = alloca ptr, align 8
  %9 = alloca ptr, align 8
  %10 = alloca i64, align 8
  %11 = alloca ptr, align 8
  %12 = alloca i32, align 4
  %13 = alloca i32, align 4
  %14 = alloca ptr, align 8
  %15 = alloca ptr, align 8
  %16 = alloca ptr, align 8
  %17 = alloca i64, align 8
  %18 = alloca i64, align 8
  %19 = alloca i32, align 4
  %20 = alloca i32, align 4
  store ptr %0, ptr %7, align 8, !tbaa !3
  store ptr %1, ptr %8, align 8, !tbaa !8
  store ptr %2, ptr %9, align 8, !tbaa !33
  store i64 %3, ptr %10, align 8, !tbaa !32
  store ptr %4, ptr %11, align 8, !tbaa !14
  call void @llvm.lifetime.start.p0(i64 4, ptr %12) #4
  call void @llvm.lifetime.start.p0(i64 4, ptr %13) #4
  call void @llvm.lifetime.start.p0(i64 8, ptr %14) #4
  store ptr null, ptr %14, align 8, !tbaa !14
  call void @llvm.lifetime.start.p0(i64 8, ptr %15) #4
  call void @llvm.lifetime.start.p0(i64 8, ptr %16) #4
  call void @llvm.lifetime.start.p0(i64 8, ptr %17) #4
  call void @llvm.lifetime.start.p0(i64 8, ptr %18) #4
  call void @llvm.lifetime.start.p0(i64 4, ptr %19) #4
  store i32 0, ptr %19, align 4, !tbaa !12
  %21 = load i64, ptr %10, align 8, !tbaa !32
  %22 = icmp eq i64 %21, 0
  br i1 %22, label %23, label %24

23:                                               ; preds = %5
  call void @ERR_new()
  call void @ERR_set_debug(ptr noundef @.str, i32 noundef 286, ptr noundef @__func__.ossl_ec_GFp_simple_oct2point)
  call void (i32, i32, ptr, ...) @ERR_set_error(i32 noundef 16, i32 noundef 100, ptr noundef null)
  store i32 0, ptr %6, align 4
  store i32 1, ptr %20, align 4
  br label %184

24:                                               ; preds = %5
  %25 = load ptr, ptr %9, align 8, !tbaa !33
  %26 = getelementptr inbounds i8, ptr %25, i64 0
  %27 = load i8, ptr %26, align 1, !tbaa !34
  %28 = zext i8 %27 to i32
  store i32 %28, ptr %12, align 4, !tbaa !12
  %29 = load i32, ptr %12, align 4, !tbaa !12
  %30 = and i32 %29, 1
  store i32 %30, ptr %13, align 4, !tbaa !12
  %31 = load i32, ptr %12, align 4, !tbaa !12
  %32 = and i32 %31, -2
  store i32 %32, ptr %12, align 4, !tbaa !12
  %33 = load i32, ptr %12, align 4, !tbaa !12
  %34 = icmp ne i32 %33, 0
  br i1 %34, label %35, label %45

35:                                               ; preds = %24
  %36 = load i32, ptr %12, align 4, !tbaa !12
  %37 = icmp ne i32 %36, 2
  br i1 %37, label %38, label %45

38:                                               ; preds = %35
  %39 = load i32, ptr %12, align 4, !tbaa !12
  %40 = icmp ne i32 %39, 4
  br i1 %40, label %41, label %45

41:                                               ; preds = %38
  %42 = load i32, ptr %12, align 4, !tbaa !12
  %43 = icmp ne i32 %42, 6
  br i1 %43, label %44, label %45

44:                                               ; preds = %41
  call void @ERR_new()
  call void @ERR_set_debug(ptr noundef @.str, i32 noundef 295, ptr noundef @__func__.ossl_ec_GFp_simple_oct2point)
  call void (i32, i32, ptr, ...) @ERR_set_error(i32 noundef 16, i32 noundef 102, ptr noundef null)
  store i32 0, ptr %6, align 4
  store i32 1, ptr %20, align 4
  br label %184

45:                                               ; preds = %41, %38, %35, %24
  %46 = load i32, ptr %12, align 4, !tbaa !12
  %47 = icmp eq i32 %46, 0
  br i1 %47, label %51, label %48

48:                                               ; preds = %45
  %49 = load i32, ptr %12, align 4, !tbaa !12
  %50 = icmp eq i32 %49, 4
  br i1 %50, label %51, label %55

51:                                               ; preds = %48, %45
  %52 = load i32, ptr %13, align 4, !tbaa !12
  %53 = icmp ne i32 %52, 0
  br i1 %53, label %54, label %55

54:                                               ; preds = %51
  call void @ERR_new()
  call void @ERR_set_debug(ptr noundef @.str, i32 noundef 299, ptr noundef @__func__.ossl_ec_GFp_simple_oct2point)
  call void (i32, i32, ptr, ...) @ERR_set_error(i32 noundef 16, i32 noundef 102, ptr noundef null)
  store i32 0, ptr %6, align 4
  store i32 1, ptr %20, align 4
  br label %184

55:                                               ; preds = %51, %48
  %56 = load i32, ptr %12, align 4, !tbaa !12
  %57 = icmp eq i32 %56, 0
  br i1 %57, label %58, label %66

58:                                               ; preds = %55
  %59 = load i64, ptr %10, align 8, !tbaa !32
  %60 = icmp ne i64 %59, 1
  br i1 %60, label %61, label %62

61:                                               ; preds = %58
  call void @ERR_new()
  call void @ERR_set_debug(ptr noundef @.str, i32 noundef 305, ptr noundef @__func__.ossl_ec_GFp_simple_oct2point)
  call void (i32, i32, ptr, ...) @ERR_set_error(i32 noundef 16, i32 noundef 102, ptr noundef null)
  store i32 0, ptr %6, align 4
  store i32 1, ptr %20, align 4
  br label %184

62:                                               ; preds = %58
  %63 = load ptr, ptr %7, align 8, !tbaa !3
  %64 = load ptr, ptr %8, align 8, !tbaa !8
  %65 = call i32 @EC_POINT_set_to_infinity(ptr noundef %63, ptr noundef %64)
  store i32 %65, ptr %6, align 4
  store i32 1, ptr %20, align 4
  br label %184

66:                                               ; preds = %55
  %67 = load ptr, ptr %7, align 8, !tbaa !3
  %68 = getelementptr inbounds nuw %struct.ec_group_st, ptr %67, i32 0, i32 10
  %69 = load ptr, ptr %68, align 8, !tbaa !23
  %70 = call i32 @BN_num_bits(ptr noundef %69)
  %71 = add nsw i32 %70, 7
  %72 = sdiv i32 %71, 8
  %73 = sext i32 %72 to i64
  store i64 %73, ptr %17, align 8, !tbaa !32
  %74 = load i32, ptr %12, align 4, !tbaa !12
  %75 = icmp eq i32 %74, 2
  br i1 %75, label %76, label %79

76:                                               ; preds = %66
  %77 = load i64, ptr %17, align 8, !tbaa !32
  %78 = add i64 1, %77
  br label %83

79:                                               ; preds = %66
  %80 = load i64, ptr %17, align 8, !tbaa !32
  %81 = mul i64 2, %80
  %82 = add i64 1, %81
  br label %83

83:                                               ; preds = %79, %76
  %84 = phi i64 [ %78, %76 ], [ %82, %79 ]
  store i64 %84, ptr %18, align 8, !tbaa !32
  %85 = load i64, ptr %10, align 8, !tbaa !32
  %86 = load i64, ptr %18, align 8, !tbaa !32
  %87 = icmp ne i64 %85, %86
  br i1 %87, label %88, label %89

88:                                               ; preds = %83
  call void @ERR_new()
  call void @ERR_set_debug(ptr noundef @.str, i32 noundef 318, ptr noundef @__func__.ossl_ec_GFp_simple_oct2point)
  call void (i32, i32, ptr, ...) @ERR_set_error(i32 noundef 16, i32 noundef 102, ptr noundef null)
  store i32 0, ptr %6, align 4
  store i32 1, ptr %20, align 4
  br label %184

89:                                               ; preds = %83
  %90 = load ptr, ptr %11, align 8, !tbaa !14
  %91 = icmp eq ptr %90, null
  br i1 %91, label %92, label %101

92:                                               ; preds = %89
  %93 = load ptr, ptr %7, align 8, !tbaa !3
  %94 = getelementptr inbounds nuw %struct.ec_group_st, ptr %93, i32 0, i32 21
  %95 = load ptr, ptr %94, align 8, !tbaa !16
  %96 = call ptr @BN_CTX_new_ex(ptr noundef %95)
  store ptr %96, ptr %14, align 8, !tbaa !14
  store ptr %96, ptr %11, align 8, !tbaa !14
  %97 = load ptr, ptr %11, align 8, !tbaa !14
  %98 = icmp eq ptr %97, null
  br i1 %98, label %99, label %100

99:                                               ; preds = %92
  store i32 0, ptr %6, align 4
  store i32 1, ptr %20, align 4
  br label %184

100:                                              ; preds = %92
  br label %101

101:                                              ; preds = %100, %89
  %102 = load ptr, ptr %11, align 8, !tbaa !14
  call void @BN_CTX_start(ptr noundef %102)
  %103 = load ptr, ptr %11, align 8, !tbaa !14
  %104 = call ptr @BN_CTX_get(ptr noundef %103)
  store ptr %104, ptr %15, align 8, !tbaa !10
  %105 = load ptr, ptr %11, align 8, !tbaa !14
  %106 = call ptr @BN_CTX_get(ptr noundef %105)
  store ptr %106, ptr %16, align 8, !tbaa !10
  %107 = load ptr, ptr %16, align 8, !tbaa !10
  %108 = icmp eq ptr %107, null
  br i1 %108, label %109, label %110

109:                                              ; preds = %101
  br label %180

110:                                              ; preds = %101
  %111 = load ptr, ptr %9, align 8, !tbaa !33
  %112 = getelementptr inbounds i8, ptr %111, i64 1
  %113 = load i64, ptr %17, align 8, !tbaa !32
  %114 = trunc i64 %113 to i32
  %115 = load ptr, ptr %15, align 8, !tbaa !10
  %116 = call ptr @BN_bin2bn(ptr noundef %112, i32 noundef %114, ptr noundef %115)
  %117 = icmp ne ptr %116, null
  br i1 %117, label %119, label %118

118:                                              ; preds = %110
  br label %180

119:                                              ; preds = %110
  %120 = load ptr, ptr %15, align 8, !tbaa !10
  %121 = load ptr, ptr %7, align 8, !tbaa !3
  %122 = getelementptr inbounds nuw %struct.ec_group_st, ptr %121, i32 0, i32 10
  %123 = load ptr, ptr %122, align 8, !tbaa !23
  %124 = call i32 @BN_ucmp(ptr noundef %120, ptr noundef %123)
  %125 = icmp sge i32 %124, 0
  br i1 %125, label %126, label %127

126:                                              ; preds = %119
  call void @ERR_new()
  call void @ERR_set_debug(ptr noundef @.str, i32 noundef 337, ptr noundef @__func__.ossl_ec_GFp_simple_oct2point)
  call void (i32, i32, ptr, ...) @ERR_set_error(i32 noundef 16, i32 noundef 102, ptr noundef null)
  br label %180

127:                                              ; preds = %119
  %128 = load i32, ptr %12, align 4, !tbaa !12
  %129 = icmp eq i32 %128, 2
  br i1 %129, label %130, label %140

130:                                              ; preds = %127
  %131 = load ptr, ptr %7, align 8, !tbaa !3
  %132 = load ptr, ptr %8, align 8, !tbaa !8
  %133 = load ptr, ptr %15, align 8, !tbaa !10
  %134 = load i32, ptr %13, align 4, !tbaa !12
  %135 = load ptr, ptr %11, align 8, !tbaa !14
  %136 = call i32 @EC_POINT_set_compressed_coordinates(ptr noundef %131, ptr noundef %132, ptr noundef %133, i32 noundef %134, ptr noundef %135)
  %137 = icmp ne i32 %136, 0
  br i1 %137, label %139, label %138

138:                                              ; preds = %130
  br label %180

139:                                              ; preds = %130
  br label %179

140:                                              ; preds = %127
  %141 = load ptr, ptr %9, align 8, !tbaa !33
  %142 = getelementptr inbounds i8, ptr %141, i64 1
  %143 = load i64, ptr %17, align 8, !tbaa !32
  %144 = getelementptr inbounds nuw i8, ptr %142, i64 %143
  %145 = load i64, ptr %17, align 8, !tbaa !32
  %146 = trunc i64 %145 to i32
  %147 = load ptr, ptr %16, align 8, !tbaa !10
  %148 = call ptr @BN_bin2bn(ptr noundef %144, i32 noundef %146, ptr noundef %147)
  %149 = icmp ne ptr %148, null
  br i1 %149, label %151, label %150

150:                                              ; preds = %140
  br label %180

151:                                              ; preds = %140
  %152 = load ptr, ptr %16, align 8, !tbaa !10
  %153 = load ptr, ptr %7, align 8, !tbaa !3
  %154 = getelementptr inbounds nuw %struct.ec_group_st, ptr %153, i32 0, i32 10
  %155 = load ptr, ptr %154, align 8, !tbaa !23
  %156 = call i32 @BN_ucmp(ptr noundef %152, ptr noundef %155)
  %157 = icmp sge i32 %156, 0
  br i1 %157, label %158, label %159

158:                                              ; preds = %151
  call void @ERR_new()
  call void @ERR_set_debug(ptr noundef @.str, i32 noundef 348, ptr noundef @__func__.ossl_ec_GFp_simple_oct2point)
  call void (i32, i32, ptr, ...) @ERR_set_error(i32 noundef 16, i32 noundef 102, ptr noundef null)
  br label %180

159:                                              ; preds = %151
  %160 = load i32, ptr %12, align 4, !tbaa !12
  %161 = icmp eq i32 %160, 6
  br i1 %161, label %162, label %169

162:                                              ; preds = %159
  %163 = load i32, ptr %13, align 4, !tbaa !12
  %164 = load ptr, ptr %16, align 8, !tbaa !10
  %165 = call i32 @BN_is_odd(ptr noundef %164)
  %166 = icmp ne i32 %163, %165
  br i1 %166, label %167, label %168

167:                                              ; preds = %162
  call void @ERR_new()
  call void @ERR_set_debug(ptr noundef @.str, i32 noundef 353, ptr noundef @__func__.ossl_ec_GFp_simple_oct2point)
  call void (i32, i32, ptr, ...) @ERR_set_error(i32 noundef 16, i32 noundef 102, ptr noundef null)
  br label %180

168:                                              ; preds = %162
  br label %169

169:                                              ; preds = %168, %159
  %170 = load ptr, ptr %7, align 8, !tbaa !3
  %171 = load ptr, ptr %8, align 8, !tbaa !8
  %172 = load ptr, ptr %15, align 8, !tbaa !10
  %173 = load ptr, ptr %16, align 8, !tbaa !10
  %174 = load ptr, ptr %11, align 8, !tbaa !14
  %175 = call i32 @EC_POINT_set_affine_coordinates(ptr noundef %170, ptr noundef %171, ptr noundef %172, ptr noundef %173, ptr noundef %174)
  %176 = icmp ne i32 %175, 0
  br i1 %176, label %178, label %177

177:                                              ; preds = %169
  br label %180

178:                                              ; preds = %169
  br label %179

179:                                              ; preds = %178, %139
  store i32 1, ptr %19, align 4, !tbaa !12
  br label %180

180:                                              ; preds = %179, %177, %167, %158, %150, %138, %126, %118, %109
  %181 = load ptr, ptr %11, align 8, !tbaa !14
  call void @BN_CTX_end(ptr noundef %181)
  %182 = load ptr, ptr %14, align 8, !tbaa !14
  call void @BN_CTX_free(ptr noundef %182)
  %183 = load i32, ptr %19, align 4, !tbaa !12
  store i32 %183, ptr %6, align 4
  store i32 1, ptr %20, align 4
  br label %184

184:                                              ; preds = %180, %99, %88, %62, %61, %54, %44, %23
  call void @llvm.lifetime.end.p0(i64 4, ptr %19) #4
  call void @llvm.lifetime.end.p0(i64 8, ptr %18) #4
  call void @llvm.lifetime.end.p0(i64 8, ptr %17) #4
  call void @llvm.lifetime.end.p0(i64 8, ptr %16) #4
  call void @llvm.lifetime.end.p0(i64 8, ptr %15) #4
  call void @llvm.lifetime.end.p0(i64 8, ptr %14) #4
  call void @llvm.lifetime.end.p0(i64 4, ptr %13) #4
  call void @llvm.lifetime.end.p0(i64 4, ptr %12) #4
  %185 = load i32, ptr %6, align 4
  ret i32 %185
}