; Function Attrs: nounwind uwtable
define i32 @ossl_ec_GFp_simple_oct2point(ptr noundef %0, ptr noundef %1, ptr noundef %2, i64 noundef %3, ptr noundef %4) local_unnamed_addr #0 {
  %6 = icmp eq i64 %3, 0
  br i1 %6, label %7, label %8

7:                                                ; preds = %5
  tail call void @ERR_new() #3
  tail call void @ERR_set_debug(ptr noundef nonnull @.str, i32 noundef 286, ptr noundef nonnull @__func__.ossl_ec_GFp_simple_oct2point) #3
  tail call void (i32, i32, ptr, ...) @ERR_set_error(i32 noundef 16, i32 noundef 100, ptr noundef null) #3
  br label %78

8:                                                ; preds = %5
  %9 = load i8, ptr %2, align 1, !tbaa !25
  %10 = zext i8 %9 to i32
  %11 = and i32 %10, 1
  %12 = and i32 %10, 254
  %or.cond = icmp ugt i8 %9, 3
  %13 = and i32 %10, 252
  %14 = icmp ne i32 %13, 4
  %or.cond5 = and i1 %or.cond, %14
  br i1 %or.cond5, label %15, label %16

15:                                               ; preds = %8
  tail call void @ERR_new() #3
  tail call void @ERR_set_debug(ptr noundef nonnull @.str, i32 noundef 295, ptr noundef nonnull @__func__.ossl_ec_GFp_simple_oct2point) #3
  tail call void (i32, i32, ptr, ...) @ERR_set_error(i32 noundef 16, i32 noundef 102, ptr noundef null) #3
  br label %78

16:                                               ; preds = %8
  %17 = icmp eq i32 %12, 0
  %18 = icmp eq i32 %12, 4
  %or.cond7 = or i1 %17, %18
  %19 = icmp ne i32 %11, 0
  %or.cond9 = and i1 %19, %or.cond7
  br i1 %or.cond9, label %20, label %21

20:                                               ; preds = %16
  tail call void @ERR_new() #3
  tail call void @ERR_set_debug(ptr noundef nonnull @.str, i32 noundef 299, ptr noundef nonnull @__func__.ossl_ec_GFp_simple_oct2point) #3
  tail call void (i32, i32, ptr, ...) @ERR_set_error(i32 noundef 16, i32 noundef 102, ptr noundef null) #3
  br label %78

21:                                               ; preds = %16
  br i1 %17, label %22, label %26

22:                                               ; preds = %21
  %.not78 = icmp eq i64 %3, 1
  br i1 %.not78, label %24, label %23

23:                                               ; preds = %22
  tail call void @ERR_new() #3
  tail call void @ERR_set_debug(ptr noundef nonnull @.str, i32 noundef 305, ptr noundef nonnull @__func__.ossl_ec_GFp_simple_oct2point) #3
  tail call void (i32, i32, ptr, ...) @ERR_set_error(i32 noundef 16, i32 noundef 102, ptr noundef null) #3
  br label %78

24:                                               ; preds = %22
  %25 = tail call i32 @EC_POINT_set_to_infinity(ptr noundef %0, ptr noundef %1) #3
  br label %78

26:                                               ; preds = %21
  %27 = getelementptr inbounds nuw i8, ptr %0, i64 64
  %28 = load ptr, ptr %27, align 8, !tbaa !16
  %29 = tail call i32 @BN_num_bits(ptr noundef %28) #3
  %30 = add nsw i32 %29, 7
  %31 = sdiv i32 %30, 8
  %32 = sext i32 %31 to i64
  %33 = icmp eq i32 %12, 2
  %34 = add nsw i64 %32, 1
  %35 = shl nsw i64 %32, 1
  %36 = or disjoint i64 %35, 1
  %37 = select i1 %33, i64 %34, i64 %36
  %.not = icmp eq i64 %3, %37
  br i1 %.not, label %39, label %38

38:                                               ; preds = %26
  tail call void @ERR_new() #3
  tail call void @ERR_set_debug(ptr noundef nonnull @.str, i32 noundef 318, ptr noundef nonnull @__func__.ossl_ec_GFp_simple_oct2point) #3
  tail call void (i32, i32, ptr, ...) @ERR_set_error(i32 noundef 16, i32 noundef 102, ptr noundef null) #3
  br label %78

39:                                               ; preds = %26
  %40 = icmp eq ptr %4, null
  br i1 %40, label %41, label %46

41:                                               ; preds = %39
  %42 = getelementptr inbounds nuw i8, ptr %0, i64 168
  %43 = load ptr, ptr %42, align 8, !tbaa !3
  %44 = tail call ptr @BN_CTX_new_ex(ptr noundef %43) #3
  %45 = icmp eq ptr %44, null
  br i1 %45, label %78, label %46

46:                                               ; preds = %41, %39
  %.067 = phi ptr [ %44, %41 ], [ null, %39 ]
  %.066 = phi ptr [ %44, %41 ], [ %4, %39 ]
  tail call void @BN_CTX_start(ptr noundef nonnull %.066) #3
  %47 = tail call ptr @BN_CTX_get(ptr noundef nonnull %.066) #3
  %48 = tail call ptr @BN_CTX_get(ptr noundef nonnull %.066) #3
  %49 = icmp eq ptr %48, null
  br i1 %49, label %77, label %50

50:                                               ; preds = %46
  %51 = getelementptr inbounds nuw i8, ptr %2, i64 1
  %52 = tail call ptr @BN_bin2bn(ptr noundef nonnull %51, i32 noundef %31, ptr noundef %47) #3
  %.not73 = icmp eq ptr %52, null
  br i1 %.not73, label %77, label %53

53:                                               ; preds = %50
  %54 = load ptr, ptr %27, align 8, !tbaa !16
  %55 = tail call i32 @BN_ucmp(ptr noundef %47, ptr noundef %54) #3
  %56 = icmp sgt i32 %55, -1
  br i1 %56, label %57, label %58

57:                                               ; preds = %53
  tail call void @ERR_new() #3
  tail call void @ERR_set_debug(ptr noundef nonnull @.str, i32 noundef 337, ptr noundef nonnull @__func__.ossl_ec_GFp_simple_oct2point) #3
  tail call void (i32, i32, ptr, ...) @ERR_set_error(i32 noundef 16, i32 noundef 102, ptr noundef null) #3
  br label %77

58:                                               ; preds = %53
  br i1 %33, label %59, label %61

59:                                               ; preds = %58
  %60 = tail call i32 @EC_POINT_set_compressed_coordinates(ptr noundef nonnull %0, ptr noundef %1, ptr noundef %47, i32 noundef %11, ptr noundef nonnull %.066) #3
  %.not77 = icmp eq i32 %60, 0
  br i1 %.not77, label %77, label %76

61:                                               ; preds = %58
  %62 = getelementptr inbounds nuw i8, ptr %51, i64 %32
  %63 = tail call ptr @BN_bin2bn(ptr noundef nonnull %62, i32 noundef %31, ptr noundef nonnull %48) #3
  %.not74 = icmp eq ptr %63, null
  br i1 %.not74, label %77, label %64

64:                                               ; preds = %61
  %65 = load ptr, ptr %27, align 8, !tbaa !16
  %66 = tail call i32 @BN_ucmp(ptr noundef nonnull %48, ptr noundef %65) #3
  %67 = icmp sgt i32 %66, -1
  br i1 %67, label %68, label %69

68:                                               ; preds = %64
  tail call void @ERR_new() #3
  tail call void @ERR_set_debug(ptr noundef nonnull @.str, i32 noundef 348, ptr noundef nonnull @__func__.ossl_ec_GFp_simple_oct2point) #3
  tail call void (i32, i32, ptr, ...) @ERR_set_error(i32 noundef 16, i32 noundef 102, ptr noundef null) #3
  br label %77

69:                                               ; preds = %64
  %70 = icmp eq i32 %12, 6
  br i1 %70, label %71, label %74

71:                                               ; preds = %69
  %72 = tail call i32 @BN_is_odd(ptr noundef nonnull %48) #3
  %.not75 = icmp eq i32 %11, %72
  br i1 %.not75, label %74, label %73

73:                                               ; preds = %71
  tail call void @ERR_new() #3
  tail call void @ERR_set_debug(ptr noundef nonnull @.str, i32 noundef 353, ptr noundef nonnull @__func__.ossl_ec_GFp_simple_oct2point) #3
  tail call void (i32, i32, ptr, ...) @ERR_set_error(i32 noundef 16, i32 noundef 102, ptr noundef null) #3
  br label %77

74:                                               ; preds = %71, %69
  %75 = tail call i32 @EC_POINT_set_affine_coordinates(ptr noundef nonnull %0, ptr noundef %1, ptr noundef %47, ptr noundef nonnull %48, ptr noundef nonnull %.066) #3
  %.not76 = icmp eq i32 %75, 0
  br i1 %.not76, label %77, label %76

76:                                               ; preds = %74, %59
  br label %77

77:                                               ; preds = %74, %61, %59, %50, %46, %76, %73, %68, %57
  %.0 = phi i32 [ 0, %46 ], [ 0, %57 ], [ 1, %76 ], [ 0, %59 ], [ 0, %68 ], [ 0, %73 ], [ 0, %74 ], [ 0, %61 ], [ 0, %50 ]
  tail call void @BN_CTX_end(ptr noundef nonnull %.066) #3
  tail call void @BN_CTX_free(ptr noundef %.067) #3
  br label %78

78:                                               ; preds = %41, %77, %38, %24, %23, %20, %15, %7
  %.065 = phi i32 [ 0, %7 ], [ 0, %15 ], [ 0, %20 ], [ 0, %23 ], [ %25, %24 ], [ 0, %38 ], [ %.0, %77 ], [ 0, %41 ]
  ret i32 %.065
}